(dp1
S'failed'
p2
(lp3
S'1'
aS'2'
aS'3'
asS'source_names'
p4
(lp5
S'api'
p6
asS'ids'
p7
(dp8
I1
(S'/home/siren-black/Desktop/TrackerApp/api/app'
p9
S'app'
p10
Ntp11
sI2
(S'/home/siren-black/Desktop/TrackerApp/api/tests/test_request.py'
p12
S'tests.test_request'
p13
Ntp14
sI3
(S'/home/siren-black/Desktop/TrackerApp/api/tests/test_user.py'
p15
S'tests.test_user'
p16
Ntp17
ss.